target datalayout = "e-m:e-p270:32:32-p271:32:32-p272:64:64-i64:64-i128:128-f80:128-n8:16:32:64-S128"
target triple = "x86_64-pc-linux-gnu"

; Function Attrs: inlinehint nounwind sspstrong willreturn memory(none) uwtable
define internal zeroext i1 @RB_NIL_P(i64 noundef %0) #5 {
  %2 = alloca i64, align 8
  store i64 %0, ptr %2, align 8, !tbaa !6
  %3 = load i64, ptr %2, align 8, !tbaa !6
  %4 = icmp eq i64 %3, 4
  ret i1 %4
}

; Function Attrs: nounwind sspstrong uwtable
define internal i64 @rb_gzreader_each(i32 noundef %0, ptr noundef %1, i64 noundef %2) #0 {
  %4 = alloca i64, align 8
  %5 = alloca i32, align 4
  %6 = alloca ptr, align 8
  %7 = alloca i64, align 8
  %8 = alloca i64, align 8
  %9 = alloca i32, align 4
  store i32 %0, ptr %5, align 4, !tbaa !10
  store ptr %1, ptr %6, align 8, !tbaa !12
  store i64 %2, ptr %7, align 8, !tbaa !6
  call void @llvm.lifetime.start.p0(i64 8, ptr %8) #23
  br label %10

10:                                               ; preds = %3
  %11 = call i32 @rb_block_given_p()
  %12 = icmp ne i32 %11, 0
  br i1 %12, label %18, label %13

13:                                               ; preds = %10
  %14 = load i64, ptr %7, align 8, !tbaa !6
  %15 = call i64 @rb_frame_this_func()
  %16 = call i64 @rb_id2sym(i64 noundef %15)
  %17 = call i64 @rb_enumeratorize_with_size(i64 noundef %14, i64 noundef %16, i32 noundef 0, ptr noundef null, ptr noundef null)
  store i64 %17, ptr %4, align 8
  store i32 1, ptr %9, align 4
  br label %33

18:                                               ; preds = %10
  br label %19

19:                                               ; preds = %18
  br label %20

20:                                               ; preds = %19
  br label %21

21:                                               ; preds = %28, %20
  %22 = load i32, ptr %5, align 4, !tbaa !10
  %23 = load ptr, ptr %6, align 8, !tbaa !12
  %24 = load i64, ptr %7, align 8, !tbaa !6
  %25 = call i64 @gzreader_gets(i32 noundef %22, ptr noundef %23, i64 noundef %24)
  store i64 %25, ptr %8, align 8, !tbaa !6
  %26 = call zeroext i1 @RB_NIL_P(i64 noundef %25) #24
  %27 = xor i1 %26, true
  br i1 %27, label %28, label %31

28:                                               ; preds = %21
  %29 = load i64, ptr %8, align 8, !tbaa !6
  %30 = call i64 @rb_yield(i64 noundef %29)
  br label %21, !llvm.loop !73

31:                                               ; preds = %21
  %32 = load i64, ptr %7, align 8, !tbaa !6
  store i64 %32, ptr %4, align 8
  store i32 1, ptr %9, align 4
  br label %33

33:                                               ; preds = %31, %13
  call void @llvm.lifetime.end.p0(i64 8, ptr %8) #23
  %34 = load i64, ptr %4, align 8
  ret i64 %34
}