; Function Attrs: nounwind sspstrong uwtable
define internal i64 @rb_gzreader_each(i32 noundef %0, ptr noundef readonly captures(none) %1, i64 noundef %2) #0 {
  %4 = tail call i32 @rb_block_given_p() #18
  %.not = icmp eq i32 %4, 0
  br i1 %.not, label %7, label %.preheader

.preheader:                                       ; preds = %3
  %5 = tail call fastcc i64 @gzreader_gets(i32 noundef %0, ptr noundef %1, i64 noundef %2)
  %6 = icmp eq i64 %5, 4
  br i1 %6, label %.loopexit, label %.lr.ph

7:                                                ; preds = %3
  %8 = tail call i64 @rb_frame_this_func() #18
  %9 = tail call i64 @rb_id2sym(i64 noundef %8) #18
  %10 = tail call i64 @rb_enumeratorize_with_size(i64 noundef %2, i64 noundef %9, i32 noundef 0, ptr noundef null, ptr noundef null) #18
  br label %.loopexit

.lr.ph:                                           ; preds = %.preheader, %.lr.ph
  %11 = phi i64 [ %13, %.lr.ph ], [ %5, %.preheader ]
  %12 = tail call i64 @rb_yield(i64 noundef %11) #18
  %13 = tail call fastcc i64 @gzreader_gets(i32 noundef %0, ptr noundef %1, i64 noundef %2)
  %14 = icmp eq i64 %13, 4
  br i1 %14, label %.loopexit, label %.lr.ph, !llvm.loop !193

.loopexit:                                        ; preds = %.lr.ph, %.preheader, %7
  %.0 = phi i64 [ %10, %7 ], [ %2, %.preheader ], [ %2, %.lr.ph ]
  ret i64 %.0
}